; Function Attrs: nounwind uwtable
define void @_ZTv0_n24_N22AmbientOcclusionPluginD0Ev(ptr noundef %0) unnamed_addr #13 align 2 {
  %2 = load ptr, ptr %0, align 8
  %3 = getelementptr inbounds i8, ptr %2, i64 -24
  %4 = load i64, ptr %3, align 8
  %5 = getelementptr inbounds i8, ptr %0, i64 %4
  tail call void @_ZN22AmbientOcclusionPluginD2Ev(ptr noundef nonnull align 8 dereferenceable(185) %5, ptr noundef nonnull @_ZTT22AmbientOcclusionPlugin) #26
  %6 = getelementptr inbounds i8, ptr %5, i64 192
  store ptr getelementptr inbounds ({ [7 x ptr] }, ptr @_ZTV13MeshLabPlugin, i64 0, i32 0, i64 2), ptr %6, align 8
  %7 = getelementptr inbounds i8, ptr %5, i64 208
  tail call void @_ZN9QFileInfoD1Ev(ptr noundef nonnull align 8 dereferenceable(8) %7) #26
  tail call void @_ZdlPv(ptr noundef nonnull %5) #25
  ret void
}